target datalayout = "e-m:e-p270:32:32-p271:32:32-p272:64:64-i64:64-i128:128-f80:128-n8:16:32:64-S128"
target triple = "x86_64-pc-linux-gnu"

%"struct.ceres::internal::CompressedRowBlockStructure" = type { %"class.std::vector.16", %"class.std::vector.21" }
%"class.std::vector.16" = type { %"struct.std::_Vector_base.17" }
%"struct.std::_Vector_base.17" = type { %"struct.std::_Vector_base<ceres::internal::Block, std::allocator<ceres::internal::Block>>::_Vector_impl" }
%"struct.std::_Vector_base<ceres::internal::Block, std::allocator<ceres::internal::Block>>::_Vector_impl" = type { %"struct.std::_Vector_base<ceres::internal::Block, std::allocator<ceres::internal::Block>>::_Vector_impl_data" }
%"struct.std::_Vector_base<ceres::internal::Block, std::allocator<ceres::internal::Block>>::_Vector_impl_data" = type { ptr, ptr, ptr }
%"class.std::vector.21" = type { %"struct.std::_Vector_base.22" }
%"struct.std::_Vector_base.22" = type { %"struct.std::_Vector_base<ceres::internal::CompressedList, std::allocator<ceres::internal::CompressedList>>::_Vector_impl" }
%"struct.std::_Vector_base<ceres::internal::CompressedList, std::allocator<ceres::internal::CompressedList>>::_Vector_impl" = type { %"struct.std::_Vector_base<ceres::internal::CompressedList, std::allocator<ceres::internal::CompressedList>>::_Vector_impl_data" }
%"struct.std::_Vector_base<ceres::internal::CompressedList, std::allocator<ceres::internal::CompressedList>>::_Vector_impl_data" = type { ptr, ptr, ptr }
%"class.std::unique_ptr.31" = type { %"struct.std::__uniq_ptr_data.32" }
%"struct.std::__uniq_ptr_data.32" = type { %"class.std::__uniq_ptr_impl.33" }
%"class.std::__uniq_ptr_impl.33" = type { %"class.std::tuple.34" }
%"class.std::tuple.34" = type { %"struct.std::_Tuple_impl.35" }
%"struct.std::_Tuple_impl.35" = type { %"struct.std::_Head_base.38" }
%"struct.std::_Head_base.38" = type { ptr }

; Function Attrs: mustprogress nounwind uwtable
define linkonce_odr hidden noundef i64 @_ZNKSt6vectorIN5ceres8internal14CompressedListESaIS2_EE4sizeEv(ptr noundef nonnull align 8 dereferenceable(24) %0) #1 comdat align 2 {
  %2 = alloca ptr, align 8
  store ptr %0, ptr %2, align 8, !tbaa !97
  %3 = load ptr, ptr %2, align 8
  %4 = getelementptr inbounds nuw %"struct.std::_Vector_base.22", ptr %3, i32 0, i32 0
  %5 = getelementptr inbounds nuw %"struct.std::_Vector_base<ceres::internal::CompressedList, std::allocator<ceres::internal::CompressedList>>::_Vector_impl_data", ptr %4, i32 0, i32 1
  %6 = load ptr, ptr %5, align 8, !tbaa !99
  %7 = getelementptr inbounds nuw %"struct.std::_Vector_base.22", ptr %3, i32 0, i32 0
  %8 = getelementptr inbounds nuw %"struct.std::_Vector_base<ceres::internal::CompressedList, std::allocator<ceres::internal::CompressedList>>::_Vector_impl_data", ptr %7, i32 0, i32 0
  %9 = load ptr, ptr %8, align 8, !tbaa !102
  %10 = ptrtoint ptr %6 to i64
  %11 = ptrtoint ptr %9 to i64
  %12 = sub i64 %10, %11
  %13 = sdiv exact i64 %12, 40
  ret i64 %13
}

; Function Attrs: mustprogress uwtable
define hidden void @_ZN5ceres8internal20InnerProductComputer6CreateERKNS0_17BlockSparseMatrixENS0_25CompressedRowSparseMatrix11StorageTypeE(ptr dead_on_unwind noalias writable sret(%"class.std::unique_ptr.31") align 8 %0, ptr noundef nonnull align 8 dereferenceable(56) %1, i32 noundef %2) #3 align 2 {
  %4 = alloca ptr, align 8
  %5 = alloca ptr, align 8
  %6 = alloca i32, align 4
  store ptr %0, ptr %4, align 8
  store ptr %1, ptr %5, align 8, !tbaa !38
  store i32 %2, ptr %6, align 4, !tbaa !16
  %7 = load ptr, ptr %5, align 8, !tbaa !38
  %8 = load ptr, ptr %5, align 8, !tbaa !38
  %9 = call noundef ptr @_ZNK5ceres8internal17BlockSparseMatrix15block_structureEv(ptr noundef nonnull align 8 dereferenceable(56) %8)
  %10 = getelementptr inbounds nuw %"struct.ceres::internal::CompressedRowBlockStructure", ptr %9, i32 0, i32 1
  %11 = call noundef i64 @_ZNKSt6vectorIN5ceres8internal14CompressedListESaIS2_EE4sizeEv(ptr noundef nonnull align 8 dereferenceable(24) %10) #19
  %12 = trunc i64 %11 to i32
  %13 = load i32, ptr %6, align 4, !tbaa !16
  call void @_ZN5ceres8internal20InnerProductComputer6CreateERKNS0_17BlockSparseMatrixEiiNS0_25CompressedRowSparseMatrix11StorageTypeE(ptr dead_on_unwind writable sret(%"class.std::unique_ptr.31") align 8 %0, ptr noundef nonnull align 8 dereferenceable(56) %7, i32 noundef 0, i32 noundef %12, i32 noundef %13)
  ret void
}