; Function Attrs: mustprogress uwtable
define hidden void @_ZN5ceres8internal20InnerProductComputer6CreateERKNS0_17BlockSparseMatrixENS0_25CompressedRowSparseMatrix11StorageTypeE(ptr dead_on_unwind noalias writable sret(%"class.std::unique_ptr.31") align 8 %0, ptr noundef nonnull align 8 dereferenceable(56) %1, i32 noundef %2) local_unnamed_addr #0 align 2 {
  %4 = tail call noundef ptr @_ZNK5ceres8internal17BlockSparseMatrix15block_structureEv(ptr noundef nonnull align 8 dereferenceable(56) %1)
  %5 = getelementptr inbounds nuw i8, ptr %4, i64 24
  %6 = getelementptr inbounds nuw i8, ptr %4, i64 32
  %7 = load ptr, ptr %6, align 8, !tbaa !74
  %8 = load ptr, ptr %5, align 8, !tbaa !77
  %9 = ptrtoint ptr %7 to i64
  %10 = ptrtoint ptr %8 to i64
  %11 = sub i64 %9, %10
  %12 = sdiv exact i64 %11, 40
  %13 = trunc i64 %12 to i32
  tail call void @_ZN5ceres8internal20InnerProductComputer6CreateERKNS0_17BlockSparseMatrixEiiNS0_25CompressedRowSparseMatrix11StorageTypeE(ptr dead_on_unwind writable sret(%"class.std::unique_ptr.31") align 8 %0, ptr noundef nonnull align 8 dereferenceable(56) %1, i32 noundef 0, i32 noundef %13, i32 noundef %2)
  ret void
}